target datalayout = "e-m:e-p270:32:32-p271:32:32-p272:64:64-i64:64-i128:128-f80:128-n8:16:32:64-S128"
target triple = "x86_64-pc-linux-gnu"

%"class.icu_77::Edits" = type <{ ptr, i32, i32, i32, i32, i32, [100 x i16], [4 x i8] }>

; Function Attrs: mustprogress nounwind uwtable
define void @_ZN6icu_775Edits5resetEv(ptr noundef nonnull align 8 dereferenceable(232) %0) #0 align 2 {
  %2 = alloca ptr, align 8
  store ptr %0, ptr %2, align 8, !tbaa !23
  %3 = load ptr, ptr %2, align 8
  %4 = getelementptr inbounds nuw %"class.icu_77::Edits", ptr %3, i32 0, i32 4
  store i32 0, ptr %4, align 4, !tbaa !29
  %5 = getelementptr inbounds nuw %"class.icu_77::Edits", ptr %3, i32 0, i32 3
  store i32 0, ptr %5, align 8, !tbaa !30
  %6 = getelementptr inbounds nuw %"class.icu_77::Edits", ptr %3, i32 0, i32 2
  store i32 0, ptr %6, align 4, !tbaa !31
  %7 = getelementptr inbounds nuw %"class.icu_77::Edits", ptr %3, i32 0, i32 5
  store i32 0, ptr %7, align 8, !tbaa !28
  ret void
}

; Function Attrs: mustprogress nounwind uwtable
define void @_ZN6icu_775Edits12releaseArrayEv(ptr noundef nonnull align 8 dereferenceable(232) %0) #0 align 2 personality ptr @__gxx_personality_v0 {
  %2 = alloca ptr, align 8
  store ptr %0, ptr %2, align 8, !tbaa !23
  %3 = load ptr, ptr %2, align 8
  %4 = getelementptr inbounds nuw %"class.icu_77::Edits", ptr %3, i32 0, i32 0
  %5 = load ptr, ptr %4, align 8, !tbaa !25
  %6 = getelementptr inbounds nuw %"class.icu_77::Edits", ptr %3, i32 0, i32 6
  %7 = getelementptr inbounds [100 x i16], ptr %6, i64 0, i64 0
  %8 = icmp ne ptr %5, %7
  br i1 %8, label %9, label %13

9:                                                ; preds = %1
  %10 = getelementptr inbounds nuw %"class.icu_77::Edits", ptr %3, i32 0, i32 0
  %11 = load ptr, ptr %10, align 8, !tbaa !25
  invoke void @uprv_free_77(ptr noundef %11)
          to label %12 unwind label %14

12:                                               ; preds = %9
  br label %13

13:                                               ; preds = %12, %1
  ret void

14:                                               ; preds = %9
  %15 = landingpad { ptr, i32 }
          catch ptr null
  %16 = extractvalue { ptr, i32 } %15, 0
  call void @__clang_call_terminate(ptr %16) #11
  unreachable
}

; Function Attrs: inlinehint mustprogress nounwind uwtable
define internal noundef signext i8 @_ZL9U_FAILURE10UErrorCode(i32 noundef %0) #2 {
  %2 = alloca i32, align 4
  store i32 %0, ptr %2, align 4, !tbaa !15
  %3 = load i32, ptr %2, align 4, !tbaa !15
  %4 = icmp sgt i32 %3, 0
  %5 = zext i1 %4 to i8
  ret i8 %5
}

; Function Attrs: mustprogress nounwind uwtable
define noundef nonnull align 8 dereferenceable(232) ptr @_ZN6icu_775Edits9moveArrayERS0_(ptr noundef nonnull align 8 dereferenceable(232) %0, ptr noundef nonnull align 8 dereferenceable(232) %1) #0 align 2 personality ptr @__gxx_personality_v0 {
  %3 = alloca ptr, align 8
  %4 = alloca ptr, align 8
  %5 = alloca ptr, align 8
  store ptr %0, ptr %4, align 8, !tbaa !23
  store ptr %1, ptr %5, align 8, !tbaa !23
  %6 = load ptr, ptr %4, align 8
  %7 = getelementptr inbounds nuw %"class.icu_77::Edits", ptr %6, i32 0, i32 5
  %8 = load i32, ptr %7, align 8, !tbaa !28
  %9 = invoke noundef signext i8 @_ZL9U_FAILURE10UErrorCode(i32 noundef %8)
          to label %10 unwind label %61

10:                                               ; preds = %2
  %11 = icmp ne i8 %9, 0
  br i1 %11, label %12, label %16

12:                                               ; preds = %10
  %13 = getelementptr inbounds nuw %"class.icu_77::Edits", ptr %6, i32 0, i32 4
  store i32 0, ptr %13, align 4, !tbaa !29
  %14 = getelementptr inbounds nuw %"class.icu_77::Edits", ptr %6, i32 0, i32 3
  store i32 0, ptr %14, align 8, !tbaa !30
  %15 = getelementptr inbounds nuw %"class.icu_77::Edits", ptr %6, i32 0, i32 2
  store i32 0, ptr %15, align 4, !tbaa !31
  store ptr %6, ptr %3, align 8
  br label %59

16:                                               ; preds = %10
  call void @_ZN6icu_775Edits12releaseArrayEv(ptr noundef nonnull align 8 dereferenceable(232) %6) #9
  %17 = getelementptr inbounds nuw %"class.icu_77::Edits", ptr %6, i32 0, i32 2
  %18 = load i32, ptr %17, align 4, !tbaa !31
  %19 = icmp sgt i32 %18, 100
  br i1 %19, label %20, label %37

20:                                               ; preds = %16
  %21 = load ptr, ptr %5, align 8, !tbaa !23
  %22 = getelementptr inbounds nuw %"class.icu_77::Edits", ptr %21, i32 0, i32 0
  %23 = load ptr, ptr %22, align 8, !tbaa !25
  %24 = getelementptr inbounds nuw %"class.icu_77::Edits", ptr %6, i32 0, i32 0
  store ptr %23, ptr %24, align 8, !tbaa !25
  %25 = load ptr, ptr %5, align 8, !tbaa !23
  %26 = getelementptr inbounds nuw %"class.icu_77::Edits", ptr %25, i32 0, i32 1
  %27 = load i32, ptr %26, align 8, !tbaa !32
  %28 = getelementptr inbounds nuw %"class.icu_77::Edits", ptr %6, i32 0, i32 1
  store i32 %27, ptr %28, align 8, !tbaa !32
  %29 = load ptr, ptr %5, align 8, !tbaa !23
  %30 = getelementptr inbounds nuw %"class.icu_77::Edits", ptr %29, i32 0, i32 6
  %31 = getelementptr inbounds [100 x i16], ptr %30, i64 0, i64 0
  %32 = load ptr, ptr %5, align 8, !tbaa !23
  %33 = getelementptr inbounds nuw %"class.icu_77::Edits", ptr %32, i32 0, i32 0
  store ptr %31, ptr %33, align 8, !tbaa !25
  %34 = load ptr, ptr %5, align 8, !tbaa !23
  %35 = getelementptr inbounds nuw %"class.icu_77::Edits", ptr %34, i32 0, i32 1
  store i32 100, ptr %35, align 8, !tbaa !32
  %36 = load ptr, ptr %5, align 8, !tbaa !23
  call void @_ZN6icu_775Edits5resetEv(ptr noundef nonnull align 8 dereferenceable(232) %36) #9
  store ptr %6, ptr %3, align 8
  br label %59

37:                                               ; preds = %16
  %38 = getelementptr inbounds nuw %"class.icu_77::Edits", ptr %6, i32 0, i32 6
  %39 = getelementptr inbounds [100 x i16], ptr %38, i64 0, i64 0
  %40 = getelementptr inbounds nuw %"class.icu_77::Edits", ptr %6, i32 0, i32 0
  store ptr %39, ptr %40, align 8, !tbaa !25
  %41 = getelementptr inbounds nuw %"class.icu_77::Edits", ptr %6, i32 0, i32 1
  store i32 100, ptr %41, align 8, !tbaa !32
  %42 = getelementptr inbounds nuw %"class.icu_77::Edits", ptr %6, i32 0, i32 2
  %43 = load i32, ptr %42, align 4, !tbaa !31
  %44 = icmp sgt i32 %43, 0
  br i1 %44, label %45, label %58

45:                                               ; preds = %37
  br label %46

46:                                               ; preds = %45
  %47 = getelementptr inbounds nuw %"class.icu_77::Edits", ptr %6, i32 0, i32 0
  %48 = load ptr, ptr %47, align 8, !tbaa !25
  %49 = load ptr, ptr %5, align 8, !tbaa !23
  %50 = getelementptr inbounds nuw %"class.icu_77::Edits", ptr %49, i32 0, i32 0
  %51 = load ptr, ptr %50, align 8, !tbaa !25
  %52 = getelementptr inbounds nuw %"class.icu_77::Edits", ptr %6, i32 0, i32 2
  %53 = load i32, ptr %52, align 4, !tbaa !31
  %54 = sext i32 %53 to i64
  %55 = mul i64 %54, 2
  call void @llvm.memcpy.p0.p0.i64(ptr align 2 %48, ptr align 2 %51, i64 %55, i1 false)
  br label %56

56:                                               ; preds = %46
  br label %57

57:                                               ; preds = %56
  br label %58

58:                                               ; preds = %57, %37
  store ptr %6, ptr %3, align 8
  br label %59

59:                                               ; preds = %58, %20, %12
  %60 = load ptr, ptr %3, align 8
  ret ptr %60

61:                                               ; preds = %2
  %62 = landingpad { ptr, i32 }
          catch ptr null
  %63 = extractvalue { ptr, i32 } %62, 0
  call void @__clang_call_terminate(ptr %63) #11
  unreachable
}

; Function Attrs: mustprogress nounwind uwtable
define noundef nonnull align 8 dereferenceable(232) ptr @_ZN6icu_775EditsaSEOS0_(ptr noundef nonnull align 8 dereferenceable(232) %0, ptr noundef nonnull align 8 dereferenceable(232) %1) #0 align 2 {
  %3 = alloca ptr, align 8
  %4 = alloca ptr, align 8
  store ptr %0, ptr %3, align 8, !tbaa !23
  store ptr %1, ptr %4, align 8, !tbaa !23
  %5 = load ptr, ptr %3, align 8
  %6 = load ptr, ptr %4, align 8, !tbaa !23
  %7 = getelementptr inbounds nuw %"class.icu_77::Edits", ptr %6, i32 0, i32 2
  %8 = load i32, ptr %7, align 4, !tbaa !31
  %9 = getelementptr inbounds nuw %"class.icu_77::Edits", ptr %5, i32 0, i32 2
  store i32 %8, ptr %9, align 4, !tbaa !31
  %10 = load ptr, ptr %4, align 8, !tbaa !23
  %11 = getelementptr inbounds nuw %"class.icu_77::Edits", ptr %10, i32 0, i32 3
  %12 = load i32, ptr %11, align 8, !tbaa !30
  %13 = getelementptr inbounds nuw %"class.icu_77::Edits", ptr %5, i32 0, i32 3
  store i32 %12, ptr %13, align 8, !tbaa !30
  %14 = load ptr, ptr %4, align 8, !tbaa !23
  %15 = getelementptr inbounds nuw %"class.icu_77::Edits", ptr %14, i32 0, i32 4
  %16 = load i32, ptr %15, align 4, !tbaa !29
  %17 = getelementptr inbounds nuw %"class.icu_77::Edits", ptr %5, i32 0, i32 4
  store i32 %16, ptr %17, align 4, !tbaa !29
  %18 = load ptr, ptr %4, align 8, !tbaa !23
  %19 = getelementptr inbounds nuw %"class.icu_77::Edits", ptr %18, i32 0, i32 5
  %20 = load i32, ptr %19, align 8, !tbaa !28
  %21 = getelementptr inbounds nuw %"class.icu_77::Edits", ptr %5, i32 0, i32 5
  store i32 %20, ptr %21, align 8, !tbaa !28
  %22 = load ptr, ptr %4, align 8, !tbaa !23
  %23 = call noundef nonnull align 8 dereferenceable(232) ptr @_ZN6icu_775Edits9moveArrayERS0_(ptr noundef nonnull align 8 dereferenceable(232) %5, ptr noundef nonnull align 8 dereferenceable(232) %22) #9
  ret ptr %23
}