; Function Attrs: mustprogress nounwind uwtable
define noundef nonnull align 8 dereferenceable(232) ptr @_ZN6icu_775EditsaSEOS0_(ptr noundef nonnull returned align 8 dereferenceable(232) initializes((12, 28)) %0, ptr noundef nonnull align 8 dereferenceable(232) %1) local_unnamed_addr #0 align 2 personality ptr @__gxx_personality_v0 {
  %3 = getelementptr inbounds nuw i8, ptr %1, i64 12
  %4 = load i32, ptr %3, align 4, !tbaa !21
  %5 = getelementptr inbounds nuw i8, ptr %0, i64 12
  store i32 %4, ptr %5, align 4, !tbaa !21
  %6 = getelementptr inbounds nuw i8, ptr %1, i64 16
  %7 = load i32, ptr %6, align 8, !tbaa !20
  %8 = getelementptr inbounds nuw i8, ptr %0, i64 16
  store i32 %7, ptr %8, align 8, !tbaa !20
  %9 = getelementptr inbounds nuw i8, ptr %1, i64 20
  %10 = load i32, ptr %9, align 4, !tbaa !19
  %11 = getelementptr inbounds nuw i8, ptr %0, i64 20
  store i32 %10, ptr %11, align 4, !tbaa !19
  %12 = getelementptr inbounds nuw i8, ptr %1, i64 24
  %13 = load i32, ptr %12, align 8, !tbaa !18
  %14 = getelementptr inbounds nuw i8, ptr %0, i64 24
  store i32 %13, ptr %14, align 8, !tbaa !18
  %15 = icmp slt i32 %13, 1
  br i1 %15, label %17, label %16

16:                                               ; preds = %2
  store i32 0, ptr %11, align 4, !tbaa !19
  store i32 0, ptr %8, align 8, !tbaa !20
  store i32 0, ptr %5, align 4, !tbaa !21
  br label %_ZN6icu_775Edits9moveArrayERS0_.exit

17:                                               ; preds = %2
  %18 = load ptr, ptr %0, align 8, !tbaa !15
  %19 = getelementptr inbounds nuw i8, ptr %0, i64 28
  %.not.i.i = icmp eq ptr %18, %19
  br i1 %.not.i.i, label %_ZN6icu_775Edits12releaseArrayEv.exit.i, label %20

20:                                               ; preds = %17
  invoke void @uprv_free_77(ptr noundef %18)
          to label %._ZN6icu_775Edits12releaseArrayEv.exit.i_crit_edge unwind label %21

._ZN6icu_775Edits12releaseArrayEv.exit.i_crit_edge: ; preds = %20
  %.pre = load i32, ptr %5, align 4, !tbaa !21
  br label %_ZN6icu_775Edits12releaseArrayEv.exit.i

21:                                               ; preds = %20
  %22 = landingpad { ptr, i32 }
          catch ptr null
  %23 = extractvalue { ptr, i32 } %22, 0
  tail call void @__clang_call_terminate(ptr %23) #18
  unreachable

_ZN6icu_775Edits12releaseArrayEv.exit.i:          ; preds = %._ZN6icu_775Edits12releaseArrayEv.exit.i_crit_edge, %17
  %24 = phi i32 [ %.pre, %._ZN6icu_775Edits12releaseArrayEv.exit.i_crit_edge ], [ %4, %17 ]
  %25 = icmp sgt i32 %24, 100
  br i1 %25, label %26, label %32

26:                                               ; preds = %_ZN6icu_775Edits12releaseArrayEv.exit.i
  %27 = load ptr, ptr %1, align 8, !tbaa !15
  store ptr %27, ptr %0, align 8, !tbaa !15
  %28 = getelementptr inbounds nuw i8, ptr %1, i64 8
  %29 = load i32, ptr %28, align 8, !tbaa !22
  %30 = getelementptr inbounds nuw i8, ptr %0, i64 8
  store i32 %29, ptr %30, align 8, !tbaa !22
  %31 = getelementptr inbounds nuw i8, ptr %1, i64 28
  store ptr %31, ptr %1, align 8, !tbaa !15
  store i32 100, ptr %28, align 8, !tbaa !22
  tail call void @llvm.memset.p0.i64(ptr noundef nonnull align 4 dereferenceable(16) %3, i8 0, i64 16, i1 false)
  br label %_ZN6icu_775Edits9moveArrayERS0_.exit

32:                                               ; preds = %_ZN6icu_775Edits12releaseArrayEv.exit.i
  store ptr %19, ptr %0, align 8, !tbaa !15
  %33 = getelementptr inbounds nuw i8, ptr %0, i64 8
  store i32 100, ptr %33, align 8, !tbaa !22
  %34 = icmp sgt i32 %24, 0
  br i1 %34, label %35, label %_ZN6icu_775Edits9moveArrayERS0_.exit

35:                                               ; preds = %32
  %36 = load ptr, ptr %1, align 8, !tbaa !15
  %37 = shl nuw nsw i32 %24, 1
  %38 = zext nneg i32 %37 to i64
  tail call void @llvm.memcpy.p0.p0.i64(ptr nonnull align 4 %19, ptr align 2 %36, i64 %38, i1 false)
  br label %_ZN6icu_775Edits9moveArrayERS0_.exit

_ZN6icu_775Edits9moveArrayERS0_.exit:             ; preds = %16, %26, %32, %35
  ret ptr %0
}